target datalayout = "e-m:e-p270:32:32-p271:32:32-p272:64:64-i64:64-i128:128-f80:128-n8:16:32:64-S128"
target triple = "x86_64-pc-linux-gnu"

%union.pthread_mutex_t = type { %struct.__pthread_mutex_s }
%struct.__pthread_mutex_s = type { i32, i32, i32, i32, i32, i16, i16, %struct.__pthread_internal_list }
%struct.__pthread_internal_list = type { ptr, ptr }
%struct.pmix_tma = type { ptr, ptr, ptr, ptr, ptr, ptr, ptr, ptr }
%struct.pmix_mca_base_var_enum_t = type { %struct.pmix_object_t, i8, ptr, ptr, ptr, ptr, ptr, ptr, i32, ptr }
%struct.pmix_object_t = type { %union.pthread_mutex_t, ptr, i32, %struct.pmix_tma }
%struct.pmix_mca_base_var_enum_flag_t = type { %struct.pmix_mca_base_var_enum_t, ptr }
%struct.pmix_mca_base_var_enum_value_flag_t = type { i32, ptr, i32 }

; Function Attrs: nounwind uwtable
define internal void @pmix_mca_base_var_enum_flag_destructor(ptr noundef %0) #0 {
  %2 = alloca ptr, align 8
  %3 = alloca i32, align 4
  store ptr %0, ptr %2, align 8, !tbaa !30
  %4 = load ptr, ptr %2, align 8, !tbaa !30
  %5 = getelementptr inbounds nuw %struct.pmix_mca_base_var_enum_flag_t, ptr %4, i32 0, i32 1
  %6 = load ptr, ptr %5, align 8, !tbaa !32
  %7 = icmp ne ptr %6, null
  br i1 %7, label %8, label %33

8:                                                ; preds = %1
  call void @llvm.lifetime.start.p0(i64 4, ptr %3) #13
  store i32 0, ptr %3, align 4, !tbaa !24
  br label %9

9:                                                ; preds = %26, %8
  %10 = load i32, ptr %3, align 4, !tbaa !24
  %11 = load ptr, ptr %2, align 8, !tbaa !30
  %12 = getelementptr inbounds nuw %struct.pmix_mca_base_var_enum_flag_t, ptr %11, i32 0, i32 0
  %13 = getelementptr inbounds nuw %struct.pmix_mca_base_var_enum_t, ptr %12, i32 0, i32 8
  %14 = load i32, ptr %13, align 8, !tbaa !41
  %15 = icmp slt i32 %10, %14
  br i1 %15, label %17, label %16

16:                                               ; preds = %9
  call void @llvm.lifetime.end.p0(i64 4, ptr %3) #13
  br label %29

17:                                               ; preds = %9
  %18 = load ptr, ptr %2, align 8, !tbaa !30
  %19 = getelementptr inbounds nuw %struct.pmix_mca_base_var_enum_flag_t, ptr %18, i32 0, i32 1
  %20 = load ptr, ptr %19, align 8, !tbaa !32
  %21 = load i32, ptr %3, align 4, !tbaa !24
  %22 = sext i32 %21 to i64
  %23 = getelementptr inbounds %struct.pmix_mca_base_var_enum_value_flag_t, ptr %20, i64 %22
  %24 = getelementptr inbounds nuw %struct.pmix_mca_base_var_enum_value_flag_t, ptr %23, i32 0, i32 1
  %25 = load ptr, ptr %24, align 8, !tbaa !42
  call void @free(ptr noundef %25) #13
  br label %26

26:                                               ; preds = %17
  %27 = load i32, ptr %3, align 4, !tbaa !24
  %28 = add nsw i32 %27, 1
  store i32 %28, ptr %3, align 4, !tbaa !24
  br label %9, !llvm.loop !44

29:                                               ; preds = %16
  %30 = load ptr, ptr %2, align 8, !tbaa !30
  %31 = getelementptr inbounds nuw %struct.pmix_mca_base_var_enum_flag_t, ptr %30, i32 0, i32 1
  %32 = load ptr, ptr %31, align 8, !tbaa !32
  call void @free(ptr noundef %32) #13
  br label %33

33:                                               ; preds = %29, %1
  ret void
}