; Function Attrs: nounwind uwtable
define internal void @pmix_mca_base_var_enum_flag_destructor(ptr noundef readonly captures(none) %0) #1 {
  %2 = getelementptr inbounds nuw i8, ptr %0, i64 192
  %3 = load ptr, ptr %2, align 8, !tbaa !27
  %.not = icmp eq ptr %3, null
  br i1 %.not, label %14, label %.preheader

.preheader:                                       ; preds = %1
  %4 = getelementptr inbounds nuw i8, ptr %0, i64 176
  %5 = load i32, ptr %4, align 8, !tbaa !36
  %6 = icmp sgt i32 %5, 0
  br i1 %6, label %.lr.ph, label %._crit_edge

._crit_edge.loopexit:                             ; preds = %.lr.ph
  %.pre = load ptr, ptr %2, align 8, !tbaa !27
  br label %._crit_edge

._crit_edge:                                      ; preds = %._crit_edge.loopexit, %.preheader
  %7 = phi ptr [ %.pre, %._crit_edge.loopexit ], [ %3, %.preheader ]
  tail call void @free(ptr noundef %7) #21
  br label %14

.lr.ph:                                           ; preds = %.preheader, %.lr.ph
  %indvars.iv = phi i64 [ %indvars.iv.next, %.lr.ph ], [ 0, %.preheader ]
  %8 = load ptr, ptr %2, align 8, !tbaa !27
  %9 = getelementptr inbounds nuw %struct.pmix_mca_base_var_enum_value_flag_t, ptr %8, i64 %indvars.iv, i32 1
  %10 = load ptr, ptr %9, align 8, !tbaa !37
  tail call void @free(ptr noundef %10) #21
  %indvars.iv.next = add nuw nsw i64 %indvars.iv, 1
  %11 = load i32, ptr %4, align 8, !tbaa !36
  %12 = sext i32 %11 to i64
  %13 = icmp slt i64 %indvars.iv.next, %12
  br i1 %13, label %.lr.ph, label %._crit_edge.loopexit, !llvm.loop !39

14:                                               ; preds = %._crit_edge, %1
  ret void
}